target datalayout = "e-m:e-p270:32:32-p271:32:32-p272:64:64-i64:64-i128:128-f80:128-n8:16:32:64-S128"
target triple = "x86_64-pc-linux-gnu"

%struct.H5F_t = type { ptr, ptr, ptr, ptr, i32, ptr, i8, i8, ptr, i32 }
%struct.H5F_shared_t = type { ptr, ptr, ptr, i8, i32, i32, %struct.H5F_mtab_t, ptr, i8, i8, i64, i32, i32, i64, i64, ptr, ptr, %struct.H5AC_cache_config_t, %struct.H5AC_cache_image_config_t, i8, i8, ptr, i64, i32, i8, i64, i64, double, i64, i64, i64, i32, i32, i32, i8, i32, ptr, ptr, ptr, ptr, i8, i8, i8, i64, i64, ptr, ptr, i32, i64, i8, i32, i8, i64, i8, [13 x i32], [13 x i64], [13 x ptr], i8, i64, i64, [7 x i32], [7 x i32], %struct.H5F_blk_aggr_t, %struct.H5F_blk_aggr_t, i64, i64, %struct.H5F_meta_accum_t, i32, i32, [30 x ptr], %struct.H5F_object_flush_t, i8, ptr }
%struct.H5F_mtab_t = type { i32, i32, ptr }
%struct.H5AC_cache_config_t = type { i32, i8, i8, i8, [1025 x i8], i8, i8, i64, double, i64, i64, i64, i32, double, double, i8, i64, i32, double, double, i32, double, double, i8, i64, i32, i8, double, i64, i32 }
%struct.H5AC_cache_image_config_t = type { i32, i8, i8, i32 }
%struct.H5F_blk_aggr_t = type { i64, i64, i64, i64, i64 }
%struct.H5F_meta_accum_t = type { ptr, i64, i64, i64, i64, i64, i8 }
%struct.H5F_object_flush_t = type { ptr, ptr }

@.str = private unnamed_addr constant [102 x i8] c"generated/home/dtcxzyw/WorkSpace/Projects/compilers/llvm-opt-benchmark/bench/hdf5/hdf5/src/H5MFaggr.c\00", align 1
@H5E_RESOURCE_g = external global i64, align 8
@__func__.H5MF__aggr_try_extend = private unnamed_addr constant [22 x i8] c"H5MF__aggr_try_extend\00", align 1
@H5E_CANTGET_g = external global i64, align 8
@.str.3 = private unnamed_addr constant [18 x i8] c"Unable to get eoa\00", align 1
@H5E_CANTEXTEND_g = external global i64, align 8
@.str.4 = private unnamed_addr constant [21 x i8] c"error extending file\00", align 1

; Function Attrs: nounwind uwtable
define i32 @H5MF__aggr_try_extend(ptr noundef %0, ptr noundef %1, i32 noundef %2, i64 noundef %3, i64 noundef %4) #0 {
  %6 = alloca ptr, align 8
  %7 = alloca ptr, align 8
  %8 = alloca i32, align 4
  %9 = alloca i64, align 8
  %10 = alloca i64, align 8
  %11 = alloca i32, align 4
  %12 = alloca i8, align 1
  %13 = alloca i64, align 8
  %14 = alloca i64, align 8
  store ptr %0, ptr %6, align 8
  store ptr %1, ptr %7, align 8
  store i32 %2, ptr %8, align 4
  store i64 %3, ptr %9, align 8
  store i64 %4, ptr %10, align 8
  store i32 0, ptr %11, align 4
  store i8 0, ptr %12, align 1
  %15 = load ptr, ptr %6, align 8
  %16 = getelementptr inbounds %struct.H5F_t, ptr %15, i32 0, i32 2
  %17 = load ptr, ptr %16, align 8
  %18 = getelementptr inbounds %struct.H5F_shared_t, ptr %17, i32 0, i32 13
  %19 = load i64, ptr %18, align 8
  %20 = load ptr, ptr %7, align 8
  %21 = getelementptr inbounds %struct.H5F_blk_aggr_t, ptr %20, i32 0, i32 0
  %22 = load i64, ptr %21, align 8
  %23 = and i64 %19, %22
  %24 = icmp ne i64 %23, 0
  br i1 %24, label %25, label %179

25:                                               ; preds = %5
  %26 = load i64, ptr %9, align 8
  %27 = icmp ne i64 %26, -1
  br i1 %27, label %28, label %178

28:                                               ; preds = %25
  %29 = load i64, ptr %9, align 8
  %30 = load ptr, ptr %7, align 8
  %31 = getelementptr inbounds %struct.H5F_blk_aggr_t, ptr %30, i32 0, i32 4
  %32 = load i64, ptr %31, align 8
  %33 = icmp eq i64 %29, %32
  br i1 %33, label %34, label %178

34:                                               ; preds = %28
  %35 = load ptr, ptr %6, align 8
  %36 = load i32, ptr %8, align 4
  %37 = call i64 @H5F_get_eoa(ptr noundef %35, i32 noundef %36)
  store i64 %37, ptr %13, align 8
  %38 = icmp eq i64 -1, %37
  br i1 %38, label %39, label %54

39:                                               ; preds = %34
  br label %40

40:                                               ; preds = %39
  br label %41

41:                                               ; preds = %40
  br label %42

42:                                               ; preds = %41
  %43 = load i64, ptr @H5E_RESOURCE_g, align 8
  %44 = load i64, ptr @H5E_CANTGET_g, align 8
  %45 = call i32 (ptr, ptr, i32, i64, i64, ptr, ...) @H5E_printf_stack(ptr noundef @.str, ptr noundef @__func__.H5MF__aggr_try_extend, i32 noundef 434, i64 noundef %43, i64 noundef %44, ptr noundef @.str.3)
  br label %46

46:                                               ; preds = %42
  store i8 1, ptr %12, align 1
  %47 = load i8, ptr %12, align 1
  %48 = trunc i8 %47 to i1
  %49 = zext i1 %48 to i8
  store i8 %49, ptr %12, align 1
  br label %50

50:                                               ; preds = %46
  br label %51

51:                                               ; preds = %50
  store i32 -1, ptr %11, align 4
  br label %180

52:                                               ; No predecessors!
  br label %53

53:                                               ; preds = %52
  br label %54

54:                                               ; preds = %53, %34
  %55 = load i64, ptr %13, align 8
  %56 = icmp ne i64 %55, -1
  br i1 %56, label %57, label %157

57:                                               ; preds = %54
  %58 = load i64, ptr %13, align 8
  %59 = load ptr, ptr %7, align 8
  %60 = getelementptr inbounds %struct.H5F_blk_aggr_t, ptr %59, i32 0, i32 4
  %61 = load i64, ptr %60, align 8
  %62 = load ptr, ptr %7, align 8
  %63 = getelementptr inbounds %struct.H5F_blk_aggr_t, ptr %62, i32 0, i32 3
  %64 = load i64, ptr %63, align 8
  %65 = add i64 %61, %64
  %66 = icmp eq i64 %58, %65
  br i1 %66, label %67, label %157

67:                                               ; preds = %57
  %68 = load i64, ptr %10, align 8
  %69 = load ptr, ptr %7, align 8
  %70 = getelementptr inbounds %struct.H5F_blk_aggr_t, ptr %69, i32 0, i32 3
  %71 = load i64, ptr %70, align 8
  %72 = uitofp i64 %71 to float
  %73 = fmul float 0x3FB99999A0000000, %72
  %74 = fptoui float %73 to i64
  %75 = icmp ule i64 %68, %74
  br i1 %75, label %76, label %89

76:                                               ; preds = %67
  %77 = load i64, ptr %10, align 8
  %78 = load ptr, ptr %7, align 8
  %79 = getelementptr inbounds %struct.H5F_blk_aggr_t, ptr %78, i32 0, i32 3
  %80 = load i64, ptr %79, align 8
  %81 = sub i64 %80, %77
  store i64 %81, ptr %79, align 8
  %82 = load i64, ptr %10, align 8
  %83 = load ptr, ptr %7, align 8
  %84 = getelementptr inbounds %struct.H5F_blk_aggr_t, ptr %83, i32 0, i32 4
  %85 = load i64, ptr %84, align 8
  %86 = add i64 %85, %82
  store i64 %86, ptr %84, align 8
  br label %87

87:                                               ; preds = %76
  store i32 1, ptr %11, align 4
  br label %180

88:                                               ; No predecessors!
  br label %156

89:                                               ; preds = %67
  %90 = load i64, ptr %10, align 8
  %91 = load ptr, ptr %7, align 8
  %92 = getelementptr inbounds %struct.H5F_blk_aggr_t, ptr %91, i32 0, i32 1
  %93 = load i64, ptr %92, align 8
  %94 = icmp ult i64 %90, %93
  br i1 %94, label %95, label %99

95:                                               ; preds = %89
  %96 = load ptr, ptr %7, align 8
  %97 = getelementptr inbounds %struct.H5F_blk_aggr_t, ptr %96, i32 0, i32 1
  %98 = load i64, ptr %97, align 8
  br label %101

99:                                               ; preds = %89
  %100 = load i64, ptr %10, align 8
  br label %101

101:                                              ; preds = %99, %95
  %102 = phi i64 [ %98, %95 ], [ %100, %99 ]
  store i64 %102, ptr %14, align 8
  %103 = load ptr, ptr %6, align 8
  %104 = load i32, ptr %8, align 4
  %105 = load ptr, ptr %7, align 8
  %106 = getelementptr inbounds %struct.H5F_blk_aggr_t, ptr %105, i32 0, i32 4
  %107 = load i64, ptr %106, align 8
  %108 = load ptr, ptr %7, align 8
  %109 = getelementptr inbounds %struct.H5F_blk_aggr_t, ptr %108, i32 0, i32 3
  %110 = load i64, ptr %109, align 8
  %111 = add i64 %107, %110
  %112 = load i64, ptr %14, align 8
  %113 = call i32 @H5F__try_extend(ptr noundef %103, i32 noundef %104, i64 noundef %111, i64 noundef %112)
  store i32 %113, ptr %11, align 4
  %114 = icmp slt i32 %113, 0
  br i1 %114, label %115, label %130

115:                                              ; preds = %101
  br label %116

116:                                              ; preds = %115
  br label %117

117:                                              ; preds = %116
  br label %118

118:                                              ; preds = %117
  %119 = load i64, ptr @H5E_RESOURCE_g, align 8
  %120 = load i64, ptr @H5E_CANTEXTEND_g, align 8
  %121 = call i32 (ptr, ptr, i32, i64, i64, ptr, ...) @H5E_printf_stack(ptr noundef @.str, ptr noundef @__func__.H5MF__aggr_try_extend, i32 noundef 456, i64 noundef %119, i64 noundef %120, ptr noundef @.str.4)
  br label %122

122:                                              ; preds = %118
  store i8 1, ptr %12, align 1
  %123 = load i8, ptr %12, align 1
  %124 = trunc i8 %123 to i1
  %125 = zext i1 %124 to i8
  store i8 %125, ptr %12, align 1
  br label %126

126:                                              ; preds = %122
  br label %127

127:                                              ; preds = %126
  store i32 -1, ptr %11, align 4
  br label %180

128:                                              ; No predecessors!
  br label %129

129:                                              ; preds = %128
  br label %155

130:                                              ; preds = %101
  %131 = load i32, ptr %11, align 4
  %132 = icmp eq i32 %131, 1
  br i1 %132, label %133, label %154

133:                                              ; preds = %130
  %134 = load i64, ptr %10, align 8
  %135 = load ptr, ptr %7, align 8
  %136 = getelementptr inbounds %struct.H5F_blk_aggr_t, ptr %135, i32 0, i32 4
  %137 = load i64, ptr %136, align 8
  %138 = add i64 %137, %134
  store i64 %138, ptr %136, align 8
  %139 = load i64, ptr %14, align 8
  %140 = load ptr, ptr %7, align 8
  %141 = getelementptr inbounds %struct.H5F_blk_aggr_t, ptr %140, i32 0, i32 2
  %142 = load i64, ptr %141, align 8
  %143 = add i64 %142, %139
  store i64 %143, ptr %141, align 8
  %144 = load i64, ptr %14, align 8
  %145 = load ptr, ptr %7, align 8
  %146 = getelementptr inbounds %struct.H5F_blk_aggr_t, ptr %145, i32 0, i32 3
  %147 = load i64, ptr %146, align 8
  %148 = add i64 %147, %144
  store i64 %148, ptr %146, align 8
  %149 = load i64, ptr %10, align 8
  %150 = load ptr, ptr %7, align 8
  %151 = getelementptr inbounds %struct.H5F_blk_aggr_t, ptr %150, i32 0, i32 3
  %152 = load i64, ptr %151, align 8
  %153 = sub i64 %152, %149
  store i64 %153, ptr %151, align 8
  br label %154

154:                                              ; preds = %133, %130
  br label %155

155:                                              ; preds = %154, %129
  br label %156

156:                                              ; preds = %155, %88
  br label %177

157:                                              ; preds = %57, %54
  %158 = load ptr, ptr %7, align 8
  %159 = getelementptr inbounds %struct.H5F_blk_aggr_t, ptr %158, i32 0, i32 3
  %160 = load i64, ptr %159, align 8
  %161 = load i64, ptr %10, align 8
  %162 = icmp uge i64 %160, %161
  br i1 %162, label %163, label %176

163:                                              ; preds = %157
  %164 = load i64, ptr %10, align 8
  %165 = load ptr, ptr %7, align 8
  %166 = getelementptr inbounds %struct.H5F_blk_aggr_t, ptr %165, i32 0, i32 3
  %167 = load i64, ptr %166, align 8
  %168 = sub i64 %167, %164
  store i64 %168, ptr %166, align 8
  %169 = load i64, ptr %10, align 8
  %170 = load ptr, ptr %7, align 8
  %171 = getelementptr inbounds %struct.H5F_blk_aggr_t, ptr %170, i32 0, i32 4
  %172 = load i64, ptr %171, align 8
  %173 = add i64 %172, %169
  store i64 %173, ptr %171, align 8
  br label %174

174:                                              ; preds = %163
  store i32 1, ptr %11, align 4
  br label %180

175:                                              ; No predecessors!
  br label %176

176:                                              ; preds = %175, %157
  br label %177

177:                                              ; preds = %176, %156
  br label %178

178:                                              ; preds = %177, %28, %25
  br label %179

179:                                              ; preds = %178, %5
  br label %180

180:                                              ; preds = %179, %174, %127, %87, %51
  %181 = load i32, ptr %11, align 4
  ret i32 %181
}