; Function Attrs: nounwind uwtable
define range(i32 -1, -2147483648) i32 @H5MF__aggr_try_extend(ptr noundef %0, ptr nocapture noundef %1, i32 noundef %2, i64 noundef %3, i64 noundef %4) local_unnamed_addr #0 {
  %6 = getelementptr inbounds i8, ptr %0, i64 16
  %7 = load ptr, ptr %6, align 8
  %8 = getelementptr inbounds i8, ptr %7, i64 88
  %9 = load i64, ptr %8, align 8
  %10 = load i64, ptr %1, align 8
  %11 = and i64 %10, %9
  %12 = icmp ne i64 %11, 0
  %13 = icmp ne i64 %3, -1
  %or.cond = and i1 %13, %12
  br i1 %or.cond, label %14, label %62

14:                                               ; preds = %5
  %15 = getelementptr inbounds i8, ptr %1, i64 32
  %16 = load i64, ptr %15, align 8
  %17 = icmp eq i64 %16, %3
  br i1 %17, label %18, label %62

18:                                               ; preds = %14
  %19 = tail call i64 @H5F_get_eoa(ptr noundef nonnull %0, i32 noundef %2) #6
  %20 = icmp eq i64 %19, -1
  br i1 %20, label %21, label %25

21:                                               ; preds = %18
  %22 = load i64, ptr @H5E_RESOURCE_g, align 8
  %23 = load i64, ptr @H5E_CANTGET_g, align 8
  %24 = tail call i32 (ptr, ptr, i32, i64, i64, ptr, ...) @H5E_printf_stack(ptr noundef nonnull @.str, ptr noundef nonnull @__func__.H5MF__aggr_try_extend, i32 noundef 434, i64 noundef %22, i64 noundef %23, ptr noundef nonnull @.str.3) #6
  br label %62

25:                                               ; preds = %18
  %26 = load i64, ptr %15, align 8
  %27 = getelementptr inbounds i8, ptr %1, i64 24
  %28 = load i64, ptr %27, align 8
  %29 = add i64 %28, %26
  %30 = icmp eq i64 %19, %29
  br i1 %30, label %31, label %58

31:                                               ; preds = %25
  %32 = uitofp i64 %28 to float
  %33 = fmul float %32, 0x3FB99999A0000000
  %34 = fptoui float %33 to i64
  %.not50 = icmp ult i64 %34, %4
  br i1 %.not50, label %38, label %35

35:                                               ; preds = %31
  %36 = sub i64 %28, %4
  store i64 %36, ptr %27, align 8
  %37 = add i64 %26, %4
  store i64 %37, ptr %15, align 8
  br label %62

38:                                               ; preds = %31
  %39 = getelementptr inbounds i8, ptr %1, i64 8
  %40 = load i64, ptr %39, align 8
  %. = tail call i64 @llvm.umax.i64(i64 %40, i64 %4)
  %41 = tail call i32 @H5F__try_extend(ptr noundef nonnull %0, i32 noundef %2, i64 noundef %19, i64 noundef %.) #6
  %42 = icmp slt i32 %41, 0
  br i1 %42, label %43, label %47

43:                                               ; preds = %38
  %44 = load i64, ptr @H5E_RESOURCE_g, align 8
  %45 = load i64, ptr @H5E_CANTEXTEND_g, align 8
  %46 = tail call i32 (ptr, ptr, i32, i64, i64, ptr, ...) @H5E_printf_stack(ptr noundef nonnull @.str, ptr noundef nonnull @__func__.H5MF__aggr_try_extend, i32 noundef 456, i64 noundef %44, i64 noundef %45, ptr noundef nonnull @.str.4) #6
  br label %62

47:                                               ; preds = %38
  %48 = icmp eq i32 %41, 1
  br i1 %48, label %49, label %62

49:                                               ; preds = %47
  %50 = load i64, ptr %15, align 8
  %51 = add i64 %50, %4
  store i64 %51, ptr %15, align 8
  %52 = getelementptr inbounds i8, ptr %1, i64 16
  %53 = load i64, ptr %52, align 8
  %54 = add i64 %53, %.
  store i64 %54, ptr %52, align 8
  %55 = load i64, ptr %27, align 8
  %56 = sub i64 %., %4
  %57 = add i64 %56, %55
  store i64 %57, ptr %27, align 8
  br label %62

58:                                               ; preds = %25
  %.not = icmp ult i64 %28, %4
  br i1 %.not, label %62, label %59

59:                                               ; preds = %58
  %60 = sub i64 %28, %4
  store i64 %60, ptr %27, align 8
  %61 = add i64 %26, %4
  store i64 %61, ptr %15, align 8
  br label %62

62:                                               ; preds = %5, %49, %47, %58, %14, %59, %43, %35, %21
  %.0 = phi i32 [ -1, %21 ], [ 1, %35 ], [ -1, %43 ], [ 1, %49 ], [ %41, %47 ], [ 1, %59 ], [ 0, %58 ], [ 0, %14 ], [ 0, %5 ]
  ret i32 %.0
}